target datalayout = "e-m:e-p270:32:32-p271:32:32-p272:64:64-i64:64-i128:128-f80:128-n8:16:32:64-S128"
target triple = "x86_64-pc-linux-gnu"

%"class.cv::Rect_" = type { i32, i32, i32, i32 }

; Function Attrs: mustprogress uwtable
define noundef nonnull align 8 dereferenceable(8) ptr @_ZN2cv4gapi4s11nlsERNS1_8IOStreamERKNS_5Rect_IiEE(ptr noundef nonnull align 8 dereferenceable(8) %0, ptr noundef nonnull align 4 dereferenceable(16) %1) #4 {
  %3 = alloca ptr, align 8
  %4 = alloca ptr, align 8
  store ptr %0, ptr %3, align 8, !tbaa !3
  store ptr %1, ptr %4, align 8, !tbaa !35
  %5 = load ptr, ptr %3, align 8, !tbaa !3
  %6 = load ptr, ptr %4, align 8, !tbaa !35
  %7 = getelementptr inbounds nuw %"class.cv::Rect_", ptr %6, i32 0, i32 0
  %8 = load i32, ptr %7, align 4, !tbaa !37
  %9 = load ptr, ptr %5, align 8, !tbaa !13
  %10 = getelementptr inbounds ptr, ptr %9, i64 7
  %11 = load ptr, ptr %10, align 8
  %12 = call noundef nonnull align 8 dereferenceable(8) ptr %11(ptr noundef nonnull align 8 dereferenceable(8) %5, i32 noundef %8)
  %13 = load ptr, ptr %4, align 8, !tbaa !35
  %14 = getelementptr inbounds nuw %"class.cv::Rect_", ptr %13, i32 0, i32 1
  %15 = load i32, ptr %14, align 4, !tbaa !39
  %16 = load ptr, ptr %12, align 8, !tbaa !13
  %17 = getelementptr inbounds ptr, ptr %16, i64 7
  %18 = load ptr, ptr %17, align 8
  %19 = call noundef nonnull align 8 dereferenceable(8) ptr %18(ptr noundef nonnull align 8 dereferenceable(8) %12, i32 noundef %15)
  %20 = load ptr, ptr %4, align 8, !tbaa !35
  %21 = getelementptr inbounds nuw %"class.cv::Rect_", ptr %20, i32 0, i32 2
  %22 = load i32, ptr %21, align 4, !tbaa !40
  %23 = load ptr, ptr %19, align 8, !tbaa !13
  %24 = getelementptr inbounds ptr, ptr %23, i64 7
  %25 = load ptr, ptr %24, align 8
  %26 = call noundef nonnull align 8 dereferenceable(8) ptr %25(ptr noundef nonnull align 8 dereferenceable(8) %19, i32 noundef %22)
  %27 = load ptr, ptr %4, align 8, !tbaa !35
  %28 = getelementptr inbounds nuw %"class.cv::Rect_", ptr %27, i32 0, i32 3
  %29 = load i32, ptr %28, align 4, !tbaa !41
  %30 = load ptr, ptr %26, align 8, !tbaa !13
  %31 = getelementptr inbounds ptr, ptr %30, i64 7
  %32 = load ptr, ptr %31, align 8
  %33 = call noundef nonnull align 8 dereferenceable(8) ptr %32(ptr noundef nonnull align 8 dereferenceable(8) %26, i32 noundef %29)
  ret ptr %33
}