; Function Attrs: mustprogress uwtable
define noundef nonnull align 8 dereferenceable(8) ptr @_ZN2cv4gapi4s11nlsERNS1_8IOStreamERKNS_5Rect_IiEE(ptr noundef nonnull align 8 dereferenceable(8) %0, ptr noundef nonnull readonly align 4 captures(none) dereferenceable(16) %1) local_unnamed_addr #3 {
  %3 = load i32, ptr %1, align 4, !tbaa !22
  %4 = load ptr, ptr %0, align 8, !tbaa !8
  %5 = getelementptr inbounds nuw i8, ptr %4, i64 56
  %6 = load ptr, ptr %5, align 8
  %7 = tail call noundef nonnull align 8 dereferenceable(8) ptr %6(ptr noundef nonnull align 8 dereferenceable(8) %0, i32 noundef %3)
  %8 = getelementptr inbounds nuw i8, ptr %1, i64 4
  %9 = load i32, ptr %8, align 4, !tbaa !24
  %10 = load ptr, ptr %7, align 8, !tbaa !8
  %11 = getelementptr inbounds nuw i8, ptr %10, i64 56
  %12 = load ptr, ptr %11, align 8
  %13 = tail call noundef nonnull align 8 dereferenceable(8) ptr %12(ptr noundef nonnull align 8 dereferenceable(8) %7, i32 noundef %9)
  %14 = getelementptr inbounds nuw i8, ptr %1, i64 8
  %15 = load i32, ptr %14, align 4, !tbaa !25
  %16 = load ptr, ptr %13, align 8, !tbaa !8
  %17 = getelementptr inbounds nuw i8, ptr %16, i64 56
  %18 = load ptr, ptr %17, align 8
  %19 = tail call noundef nonnull align 8 dereferenceable(8) ptr %18(ptr noundef nonnull align 8 dereferenceable(8) %13, i32 noundef %15)
  %20 = getelementptr inbounds nuw i8, ptr %1, i64 12
  %21 = load i32, ptr %20, align 4, !tbaa !26
  %22 = load ptr, ptr %19, align 8, !tbaa !8
  %23 = getelementptr inbounds nuw i8, ptr %22, i64 56
  %24 = load ptr, ptr %23, align 8
  %25 = tail call noundef nonnull align 8 dereferenceable(8) ptr %24(ptr noundef nonnull align 8 dereferenceable(8) %19, i32 noundef %21)
  ret ptr %25
}